target datalayout = "e-m:e-p270:32:32-p271:32:32-p272:64:64-i64:64-i128:128-f80:128-n8:16:32:64-S128"
target triple = "x86_64-pc-linux-gnu"

%struct.lexbor_dobject_t = type { ptr, ptr, i64, i64 }
%struct.lexbor_array_t = type { ptr, i64, i64 }

; Function Attrs: nounwind uwtable
define internal i64 @lexbor_array_length(ptr noundef %0) #0 {
  %2 = alloca ptr, align 8
  store ptr %0, ptr %2, align 8
  %3 = load ptr, ptr %2, align 8
  %4 = getelementptr inbounds %struct.lexbor_array_t, ptr %3, i32 0, i32 2
  %5 = load i64, ptr %4, align 8
  ret i64 %5
}

; Function Attrs: nounwind uwtable
define hidden ptr @lexbor_dobject_alloc(ptr noundef %0) #0 {
  %2 = alloca ptr, align 8
  %3 = alloca ptr, align 8
  %4 = alloca ptr, align 8
  store ptr %0, ptr %3, align 8
  %5 = load ptr, ptr %3, align 8
  %6 = getelementptr inbounds %struct.lexbor_dobject_t, ptr %5, i32 0, i32 1
  %7 = load ptr, ptr %6, align 8
  %8 = call i64 @lexbor_array_length(ptr noundef %7)
  %9 = icmp ne i64 %8, 0
  br i1 %9, label %10, label %19

10:                                               ; preds = %1
  %11 = load ptr, ptr %3, align 8
  %12 = getelementptr inbounds %struct.lexbor_dobject_t, ptr %11, i32 0, i32 2
  %13 = load i64, ptr %12, align 8
  %14 = add i64 %13, 1
  store i64 %14, ptr %12, align 8
  %15 = load ptr, ptr %3, align 8
  %16 = getelementptr inbounds %struct.lexbor_dobject_t, ptr %15, i32 0, i32 1
  %17 = load ptr, ptr %16, align 8
  %18 = call ptr @lexbor_array_pop(ptr noundef %17)
  store ptr %18, ptr %2, align 8
  br label %36

19:                                               ; preds = %1
  %20 = load ptr, ptr %3, align 8
  %21 = getelementptr inbounds %struct.lexbor_dobject_t, ptr %20, i32 0, i32 0
  %22 = load ptr, ptr %21, align 8
  %23 = load ptr, ptr %3, align 8
  %24 = getelementptr inbounds %struct.lexbor_dobject_t, ptr %23, i32 0, i32 3
  %25 = load i64, ptr %24, align 8
  %26 = call ptr @lexbor_mem_alloc(ptr noundef %22, i64 noundef %25)
  store ptr %26, ptr %4, align 8
  %27 = load ptr, ptr %4, align 8
  %28 = icmp eq ptr %27, null
  br i1 %28, label %29, label %30

29:                                               ; preds = %19
  store ptr null, ptr %2, align 8
  br label %36

30:                                               ; preds = %19
  %31 = load ptr, ptr %3, align 8
  %32 = getelementptr inbounds %struct.lexbor_dobject_t, ptr %31, i32 0, i32 2
  %33 = load i64, ptr %32, align 8
  %34 = add i64 %33, 1
  store i64 %34, ptr %32, align 8
  %35 = load ptr, ptr %4, align 8
  store ptr %35, ptr %2, align 8
  br label %36

36:                                               ; preds = %30, %29, %10
  %37 = load ptr, ptr %2, align 8
  ret ptr %37
}

; Function Attrs: nounwind uwtable
define hidden ptr @lexbor_dobject_calloc(ptr noundef %0) #0 {
  %2 = alloca ptr, align 8
  %3 = alloca ptr, align 8
  store ptr %0, ptr %2, align 8
  %4 = load ptr, ptr %2, align 8
  %5 = call ptr @lexbor_dobject_alloc(ptr noundef %4)
  store ptr %5, ptr %3, align 8
  %6 = load ptr, ptr %3, align 8
  %7 = icmp ne ptr %6, null
  br i1 %7, label %8, label %13

8:                                                ; preds = %1
  %9 = load ptr, ptr %3, align 8
  %10 = load ptr, ptr %2, align 8
  %11 = getelementptr inbounds %struct.lexbor_dobject_t, ptr %10, i32 0, i32 3
  %12 = load i64, ptr %11, align 8
  call void @llvm.memset.p0.i64(ptr align 1 %9, i8 0, i64 %12, i1 false)
  br label %13

13:                                               ; preds = %8, %1
  %14 = load ptr, ptr %3, align 8
  ret ptr %14
}