; Function Attrs: nounwind uwtable
define hidden ptr @lexbor_dobject_calloc(ptr nocapture noundef %0) local_unnamed_addr #0 {
  %2 = getelementptr inbounds i8, ptr %0, i64 8
  %3 = load ptr, ptr %2, align 8
  %4 = getelementptr i8, ptr %3, i64 16
  %.val.i = load i64, ptr %4, align 8
  %.not.i = icmp eq i64 %.val.i, 0
  br i1 %.not.i, label %5, label %lexbor_dobject_alloc.exit

5:                                                ; preds = %1
  %6 = load ptr, ptr %0, align 8
  %7 = getelementptr inbounds i8, ptr %0, i64 24
  %8 = load i64, ptr %7, align 8
  %9 = tail call ptr @lexbor_mem_alloc(ptr noundef %6, i64 noundef %8) #6
  %10 = icmp eq ptr %9, null
  br i1 %10, label %lexbor_dobject_alloc.exit.thread, label %lexbor_dobject_alloc.exit.thread8

lexbor_dobject_alloc.exit.thread8:                ; preds = %5
  %11 = getelementptr inbounds i8, ptr %0, i64 16
  %12 = load i64, ptr %11, align 8
  %13 = add i64 %12, 1
  store i64 %13, ptr %11, align 8
  br label %18

lexbor_dobject_alloc.exit:                        ; preds = %1
  %14 = getelementptr inbounds i8, ptr %0, i64 16
  %15 = load i64, ptr %14, align 8
  %16 = add i64 %15, 1
  store i64 %16, ptr %14, align 8
  %17 = tail call ptr @lexbor_array_pop(ptr noundef nonnull %3) #6
  %.not = icmp eq ptr %17, null
  br i1 %.not, label %lexbor_dobject_alloc.exit.thread, label %18

18:                                               ; preds = %lexbor_dobject_alloc.exit.thread8, %lexbor_dobject_alloc.exit
  %.0.i11 = phi ptr [ %9, %lexbor_dobject_alloc.exit.thread8 ], [ %17, %lexbor_dobject_alloc.exit ]
  %19 = getelementptr inbounds i8, ptr %0, i64 24
  %20 = load i64, ptr %19, align 8
  tail call void @llvm.memset.p0.i64(ptr nonnull align 1 %.0.i11, i8 0, i64 %20, i1 false)
  br label %lexbor_dobject_alloc.exit.thread

lexbor_dobject_alloc.exit.thread:                 ; preds = %5, %18, %lexbor_dobject_alloc.exit
  %.0.i7 = phi ptr [ %.0.i11, %18 ], [ null, %lexbor_dobject_alloc.exit ], [ null, %5 ]
  ret ptr %.0.i7
}